; Function Attrs: nounwind uwtable
define ptr @l_Std_Time_Hour_Ordinal_toRelative(ptr noundef %0) local_unnamed_addr #0 {
  %2 = load ptr, ptr @l_Std_Time_Hour_Ordinal_toRelative___closed__2, align 8, !tbaa !11
  %3 = ptrtoint ptr %0 to i64
  %4 = and i64 %3, 1
  %.not.i12 = icmp eq i64 %4, 0
  br i1 %.not.i12, label %.critedge.i, label %5, !prof !13

5:                                                ; preds = %1
  %6 = ptrtoint ptr %2 to i64
  %7 = and i64 %6, 1
  %.not7.i = icmp eq i64 %7, 0
  br i1 %.not7.i, label %.critedge.i, label %8, !prof !13

8:                                                ; preds = %5
  %9 = shl i64 %3, 31
  %10 = ashr i64 %9, 32
  %11 = shl i64 %6, 31
  %12 = ashr i64 %11, 32
  %13 = add nsw i64 %12, %10
  %14 = add nsw i64 %13, 2147483648
  %15 = icmp ult i64 %14, 4294967296
  br i1 %15, label %16, label %21, !prof !10

16:                                               ; preds = %8
  %17 = shl nsw i64 %13, 1
  %18 = and i64 %17, 8589934590
  %19 = or disjoint i64 %18, 1
  %20 = inttoptr i64 %19 to ptr
  br label %lean_int_add.exit

21:                                               ; preds = %8
  %22 = tail call ptr @lean_big_int64_to_int(i64 noundef range(i64 -4294967296, 4294967296) %13) #4
  br label %lean_int_add.exit

.critedge.i:                                      ; preds = %5, %1
  %23 = tail call ptr @lean_int_big_add(ptr noundef %0, ptr noundef %2) #4
  br label %lean_int_add.exit

lean_int_add.exit:                                ; preds = %16, %21, %.critedge.i
  %.0.i = phi ptr [ %23, %.critedge.i ], [ %20, %16 ], [ %22, %21 ]
  %24 = load ptr, ptr @l_Std_Time_Hour_Ordinal_toRelative___closed__1, align 8, !tbaa !11
  %25 = ptrtoint ptr %.0.i to i64
  %26 = and i64 %25, 1
  %.not.i13 = icmp eq i64 %26, 0
  br i1 %.not.i13, label %50, label %27, !prof !13

27:                                               ; preds = %lean_int_add.exit
  %28 = ptrtoint ptr %24 to i64
  %29 = and i64 %28, 1
  %.not21.i = icmp eq i64 %29, 0
  br i1 %.not21.i, label %lean_int_emod.exit.thread23, label %31, !prof !13

lean_int_emod.exit.thread23:                      ; preds = %27
  %30 = tail call ptr @lean_int_big_emod(ptr noundef %.0.i, ptr noundef %24) #4
  br label %lean_dec.exit9

31:                                               ; preds = %27
  %32 = shl i64 %28, 31
  %33 = icmp ult i64 %32, 4294967296
  br i1 %33, label %lean_dec.exit9, label %34

34:                                               ; preds = %31
  %35 = ashr i64 %32, 32
  %36 = shl i64 %25, 31
  %37 = ashr i64 %36, 32
  %38 = srem i64 %37, %35
  %39 = icmp slt i64 %38, 0
  %.p.i = tail call i64 @llvm.abs.i64(i64 %35, i1 true)
  %40 = select i1 %39, i64 %.p.i, i64 0
  %.0.i14 = add nsw i64 %40, %38
  %41 = add nsw i64 %.0.i14, 2147483648
  %42 = icmp samesign ult i64 %41, 4294967296
  br i1 %42, label %43, label %48, !prof !10

43:                                               ; preds = %34
  %44 = shl nsw i64 %.0.i14, 1
  %45 = and i64 %44, 8589934590
  %46 = or disjoint i64 %45, 1
  %47 = inttoptr i64 %46 to ptr
  br label %lean_dec.exit9

48:                                               ; preds = %34
  %49 = tail call ptr @lean_big_int64_to_int(i64 noundef range(i64 -4294967296, 4294967296) %.0.i14) #4
  br label %lean_dec.exit9

50:                                               ; preds = %lean_int_add.exit
  %51 = tail call ptr @lean_int_big_emod(ptr noundef %.0.i, ptr noundef %24) #4
  %52 = load i32, ptr %.0.i, align 4, !tbaa !5
  %53 = icmp sgt i32 %52, 1
  br i1 %53, label %54, label %56, !prof !10

54:                                               ; preds = %50
  %55 = add nsw i32 %52, -1
  store i32 %55, ptr %.0.i, align 4, !tbaa !5
  br label %lean_dec.exit9

56:                                               ; preds = %50
  %.not.i = icmp eq i32 %52, 0
  br i1 %.not.i, label %lean_dec.exit9, label %57

57:                                               ; preds = %56
  tail call void @lean_dec_ref_cold(ptr noundef nonnull %.0.i) #4
  br label %lean_dec.exit9

lean_dec.exit9:                                   ; preds = %48, %43, %31, %57, %56, %54, %lean_int_emod.exit.thread23
  %.1.i22 = phi ptr [ %30, %lean_int_emod.exit.thread23 ], [ %51, %54 ], [ %51, %56 ], [ %51, %57 ], [ %49, %48 ], [ %47, %43 ], [ %.0.i, %31 ]
  %58 = load ptr, ptr @l_Std_Time_Hour_instInhabitedOrdinal___closed__4, align 8, !tbaa !11
  %59 = ptrtoint ptr %.1.i22 to i64
  %60 = and i64 %59, 1
  %.not.i16 = icmp eq i64 %60, 0
  br i1 %.not.i16, label %80, label %61, !prof !13

61:                                               ; preds = %lean_dec.exit9
  %62 = ptrtoint ptr %58 to i64
  %63 = and i64 %62, 1
  %.not7.i17 = icmp eq i64 %63, 0
  br i1 %.not7.i17, label %lean_int_add.exit20.thread26, label %65, !prof !13

lean_int_add.exit20.thread26:                     ; preds = %61
  %64 = tail call ptr @lean_int_big_add(ptr noundef %.1.i22, ptr noundef %58) #4
  br label %lean_dec.exit

65:                                               ; preds = %61
  %66 = shl i64 %59, 31
  %67 = ashr i64 %66, 32
  %68 = shl i64 %62, 31
  %69 = ashr i64 %68, 32
  %70 = add nsw i64 %69, %67
  %71 = add nsw i64 %70, 2147483648
  %72 = icmp ult i64 %71, 4294967296
  br i1 %72, label %73, label %78, !prof !10

73:                                               ; preds = %65
  %74 = shl nsw i64 %70, 1
  %75 = and i64 %74, 8589934590
  %76 = or disjoint i64 %75, 1
  %77 = inttoptr i64 %76 to ptr
  br label %lean_dec.exit

78:                                               ; preds = %65
  %79 = tail call ptr @lean_big_int64_to_int(i64 noundef range(i64 -4294967296, 4294967296) %70) #4
  br label %lean_dec.exit

80:                                               ; preds = %lean_dec.exit9
  %81 = tail call ptr @lean_int_big_add(ptr noundef %.1.i22, ptr noundef %58) #4
  %82 = load i32, ptr %.1.i22, align 4, !tbaa !5
  %83 = icmp sgt i32 %82, 1
  br i1 %83, label %84, label %86, !prof !10

84:                                               ; preds = %80
  %85 = add nsw i32 %82, -1
  store i32 %85, ptr %.1.i22, align 4, !tbaa !5
  br label %lean_dec.exit

86:                                               ; preds = %80
  %.not.i10 = icmp eq i32 %82, 0
  br i1 %.not.i10, label %lean_dec.exit, label %87

87:                                               ; preds = %86
  tail call void @lean_dec_ref_cold(ptr noundef nonnull %.1.i22) #4
  br label %lean_dec.exit

lean_dec.exit:                                    ; preds = %78, %73, %87, %86, %84, %lean_int_add.exit20.thread26
  %.0.i1825 = phi ptr [ %64, %lean_int_add.exit20.thread26 ], [ %81, %84 ], [ %81, %86 ], [ %81, %87 ], [ %79, %78 ], [ %77, %73 ]
  ret ptr %.0.i1825
}